target datalayout = "e-m:e-p270:32:32-p271:32:32-p272:64:64-i64:64-i128:128-f80:128-n8:16:32:64-S128"
target triple = "x86_64-pc-linux-gnu"

%struct.job_record = type { i32, ptr, ptr, ptr, ptr, i16, i32, i32, i32, ptr, i32, ptr, ptr, i16, ptr, double, i64, ptr, ptr, ptr, ptr, ptr, ptr, i32, ptr, i32, i64, i64, i32, i32, ptr, i16, i64, i64, i8, i32, ptr, ptr, ptr, ptr, ptr, ptr, ptr, ptr, i32, ptr, ptr, i32, ptr, i32, ptr, i32, ptr, i32, ptr, ptr, ptr, ptr, ptr, ptr, i32, i16, i64, ptr, ptr, ptr, ptr, %struct.acct_policy_limit_set_t, i16, ptr, ptr, ptr, ptr, ptr, i32, ptr, ptr, ptr, ptr, ptr, i32, i32, ptr, ptr, ptr, i16, ptr, ptr, i8, ptr, ptr, i64, i64, i8, i32, i32, i8, i32, ptr, i32, i64, i32, ptr, ptr, ptr, i8, i16, i64, i32, ptr, ptr, ptr, ptr, ptr, i16, i32, ptr, ptr, ptr, ptr, i32, ptr, i32, i16, i64, ptr, i32, i32, ptr, i64, ptr, ptr, i64, i32, i32, i64, i32, i32, ptr, ptr, ptr, ptr, ptr, ptr, ptr, ptr, ptr, ptr, ptr, ptr, i32, ptr, i16, i16, i16, i16, ptr, i32, i32, i8, i64 }
%struct.acct_policy_limit_set_t = type { i16, i16, ptr }
%struct.node_record = type { ptr, ptr, i16, i64, i64, ptr, ptr, ptr, i16, ptr, i16, i16, i32, i32, i64, ptr, i16, i16, ptr, ptr, ptr, ptr, ptr, i64, i64, ptr, ptr, ptr, ptr, i32, ptr, ptr, i64, i64, i32, ptr, i64, ptr, i32, i16, ptr, ptr, i32, ptr, i32, i8, ptr, i32, i16, i16, ptr, i16, i64, i16, i64, ptr, i64, i32, i16, i64, i16, ptr, i16, i64, ptr, i64, i16, i32, i16, ptr, ptr, ptr, i16, i32, i16, i16, i32, ptr, i16, i32 }
%struct.node_features = type { i32, ptr, ptr }

@active_feature_list = external global ptr, align 8
@.str.37 = private unnamed_addr constant [28 x i8] c"%s: %pJ lacks a node_bitmap\00", align 1
@__func__.pick_batch_host = private unnamed_addr constant [16 x i8] c"pick_batch_host\00", align 1
@.str.38 = private unnamed_addr constant [27 x i8] c"%s: %pJ allocated no nodes\00", align 1
@node_record_table_ptr = external global ptr, align 8

; Function Attrs: nounwind uwtable
define dso_local i32 @pick_batch_host(ptr noundef %0) #0 {
  %2 = alloca i32, align 4
  %3 = alloca ptr, align 8
  %4 = alloca i32, align 4
  %5 = alloca i32, align 4
  %6 = alloca ptr, align 8
  %7 = alloca ptr, align 8
  %8 = alloca ptr, align 8
  %9 = alloca i8, align 1
  %10 = alloca i8, align 1
  %11 = alloca ptr, align 8
  %12 = alloca ptr, align 8
  %13 = alloca ptr, align 8
  %14 = alloca i32, align 4
  store ptr %0, ptr %3, align 8
  call void @llvm.lifetime.start.p0(i64 4, ptr %4) #8
  call void @llvm.lifetime.start.p0(i64 4, ptr %5) #8
  call void @llvm.lifetime.start.p0(i64 8, ptr %6) #8
  call void @llvm.lifetime.start.p0(i64 8, ptr %7) #8
  call void @llvm.lifetime.start.p0(i64 8, ptr %8) #8
  call void @llvm.lifetime.start.p0(i64 1, ptr %9) #8
  call void @llvm.lifetime.start.p0(i64 1, ptr %10) #8
  store i8 38, ptr %10, align 1
  call void @llvm.lifetime.start.p0(i64 8, ptr %11) #8
  call void @llvm.lifetime.start.p0(i64 8, ptr %12) #8
  call void @llvm.lifetime.start.p0(i64 8, ptr %13) #8
  %15 = load ptr, ptr %3, align 8
  %16 = getelementptr inbounds nuw %struct.job_record, ptr %15, i32 0, i32 14
  %17 = load ptr, ptr %16, align 8
  %18 = icmp ne ptr %17, null
  br i1 %18, label %19, label %20

19:                                               ; preds = %1
  store i32 0, ptr %2, align 4
  store i32 1, ptr %14, align 4
  br label %186

20:                                               ; preds = %1
  %21 = load ptr, ptr %3, align 8
  %22 = getelementptr inbounds nuw %struct.job_record, ptr %21, i32 0, i32 77
  %23 = load ptr, ptr %22, align 8
  %24 = icmp ne ptr %23, null
  br i1 %24, label %28, label %25

25:                                               ; preds = %20
  %26 = load ptr, ptr %3, align 8
  %27 = call i32 (ptr, ...) @error(ptr noundef @.str.37, ptr noundef @__func__.pick_batch_host, ptr noundef %26)
  store i32 -1, ptr %2, align 4
  store i32 1, ptr %14, align 4
  br label %186

28:                                               ; preds = %20
  %29 = load ptr, ptr %3, align 8
  %30 = getelementptr inbounds nuw %struct.job_record, ptr %29, i32 0, i32 77
  %31 = load ptr, ptr %30, align 8
  %32 = call i64 @bit_ffs(ptr noundef %31)
  %33 = trunc i64 %32 to i32
  store i32 %33, ptr %5, align 4
  %34 = load i32, ptr %5, align 4
  %35 = icmp slt i32 %34, 0
  br i1 %35, label %36, label %39

36:                                               ; preds = %28
  %37 = load ptr, ptr %3, align 8
  %38 = call i32 (ptr, ...) @error(ptr noundef @.str.38, ptr noundef @__func__.pick_batch_host, ptr noundef %37)
  store i32 -1, ptr %2, align 4
  store i32 1, ptr %14, align 4
  br label %186

39:                                               ; preds = %28
  %40 = load ptr, ptr %3, align 8
  %41 = getelementptr inbounds nuw %struct.job_record, ptr %40, i32 0, i32 12
  %42 = load ptr, ptr %41, align 8
  %43 = icmp ne ptr %42, null
  br i1 %43, label %56, label %44

44:                                               ; preds = %39
  %45 = load ptr, ptr @node_record_table_ptr, align 8
  %46 = load i32, ptr %5, align 4
  %47 = sext i32 %46 to i64
  %48 = getelementptr inbounds ptr, ptr %45, i64 %47
  %49 = load ptr, ptr %48, align 8
  store ptr %49, ptr %6, align 8
  %50 = load ptr, ptr %6, align 8
  %51 = getelementptr inbounds nuw %struct.node_record, ptr %50, i32 0, i32 37
  %52 = load ptr, ptr %51, align 8
  %53 = call ptr @xstrdup(ptr noundef %52)
  %54 = load ptr, ptr %3, align 8
  %55 = getelementptr inbounds nuw %struct.job_record, ptr %54, i32 0, i32 14
  store ptr %53, ptr %55, align 8
  store i32 0, ptr %2, align 4
  store i32 1, ptr %14, align 4
  br label %186

56:                                               ; preds = %39
  %57 = load ptr, ptr %3, align 8
  %58 = getelementptr inbounds nuw %struct.job_record, ptr %57, i32 0, i32 77
  %59 = load ptr, ptr %58, align 8
  %60 = call ptr @bit_copy(ptr noundef %59)
  store ptr %60, ptr %13, align 8
  %61 = load ptr, ptr %3, align 8
  %62 = getelementptr inbounds nuw %struct.job_record, ptr %61, i32 0, i32 12
  %63 = load ptr, ptr %62, align 8
  %64 = call ptr @xstrdup(ptr noundef %63)
  store ptr %64, ptr %7, align 8
  %65 = load ptr, ptr %7, align 8
  store ptr %65, ptr %8, align 8
  store i32 0, ptr %4, align 4
  br label %66

66:                                               ; preds = %148, %56
  %67 = load ptr, ptr %7, align 8
  %68 = load i32, ptr %4, align 4
  %69 = sext i32 %68 to i64
  %70 = getelementptr inbounds i8, ptr %67, i64 %69
  %71 = load i8, ptr %70, align 1
  %72 = sext i8 %71 to i32
  %73 = icmp eq i32 %72, 38
  br i1 %73, label %74, label %75

74:                                               ; preds = %66
  store i8 38, ptr %9, align 1
  br label %96

75:                                               ; preds = %66
  %76 = load ptr, ptr %7, align 8
  %77 = load i32, ptr %4, align 4
  %78 = sext i32 %77 to i64
  %79 = getelementptr inbounds i8, ptr %76, i64 %78
  %80 = load i8, ptr %79, align 1
  %81 = sext i8 %80 to i32
  %82 = icmp eq i32 %81, 124
  br i1 %82, label %83, label %84

83:                                               ; preds = %75
  store i8 124, ptr %9, align 1
  br label %95

84:                                               ; preds = %75
  %85 = load ptr, ptr %7, align 8
  %86 = load i32, ptr %4, align 4
  %87 = sext i32 %86 to i64
  %88 = getelementptr inbounds i8, ptr %85, i64 %87
  %89 = load i8, ptr %88, align 1
  %90 = sext i8 %89 to i32
  %91 = icmp eq i32 %90, 0
  br i1 %91, label %92, label %93

92:                                               ; preds = %84
  store i8 0, ptr %9, align 1
  br label %94

93:                                               ; preds = %84
  br label %148

94:                                               ; preds = %92
  br label %95

95:                                               ; preds = %94, %83
  br label %96

96:                                               ; preds = %95, %74
  %97 = load ptr, ptr %7, align 8
  %98 = load i32, ptr %4, align 4
  %99 = sext i32 %98 to i64
  %100 = getelementptr inbounds i8, ptr %97, i64 %99
  store i8 0, ptr %100, align 1
  %101 = load ptr, ptr @active_feature_list, align 8
  %102 = call ptr @list_iterator_create(ptr noundef %101)
  store ptr %102, ptr %12, align 8
  br label %103

103:                                              ; preds = %114, %96
  %104 = load ptr, ptr %12, align 8
  %105 = call ptr @list_next(ptr noundef %104)
  store ptr %105, ptr %11, align 8
  %106 = icmp ne ptr %105, null
  br i1 %106, label %107, label %130

107:                                              ; preds = %103
  %108 = load ptr, ptr %11, align 8
  %109 = getelementptr inbounds nuw %struct.node_features, ptr %108, i32 0, i32 1
  %110 = load ptr, ptr %109, align 8
  %111 = load ptr, ptr %8, align 8
  %112 = call i32 @xstrcmp(ptr noundef %110, ptr noundef %111)
  %113 = icmp ne i32 %112, 0
  br i1 %113, label %114, label %115

114:                                              ; preds = %107
  br label %103, !llvm.loop !45

115:                                              ; preds = %107
  %116 = load i8, ptr %10, align 1
  %117 = sext i8 %116 to i32
  %118 = icmp eq i32 %117, 38
  br i1 %118, label %119, label %124

119:                                              ; preds = %115
  %120 = load ptr, ptr %13, align 8
  %121 = load ptr, ptr %11, align 8
  %122 = getelementptr inbounds nuw %struct.node_features, ptr %121, i32 0, i32 2
  %123 = load ptr, ptr %122, align 8
  call void @bit_and(ptr noundef %120, ptr noundef %123)
  br label %129

124:                                              ; preds = %115
  %125 = load ptr, ptr %13, align 8
  %126 = load ptr, ptr %11, align 8
  %127 = getelementptr inbounds nuw %struct.node_features, ptr %126, i32 0, i32 2
  %128 = load ptr, ptr %127, align 8
  call void @bit_or(ptr noundef %125, ptr noundef %128)
  br label %129

129:                                              ; preds = %124, %119
  br label %130

130:                                              ; preds = %129, %103
  %131 = load ptr, ptr %12, align 8
  call void @list_iterator_destroy(ptr noundef %131)
  %132 = load ptr, ptr %11, align 8
  %133 = icmp ne ptr %132, null
  br i1 %133, label %136, label %134

134:                                              ; preds = %130
  %135 = load ptr, ptr %13, align 8
  call void @bit_clear_all(ptr noundef %135)
  br label %136

136:                                              ; preds = %134, %130
  %137 = load i8, ptr %9, align 1
  %138 = sext i8 %137 to i32
  %139 = icmp eq i32 %138, 0
  br i1 %139, label %140, label %141

140:                                              ; preds = %136
  br label %151

141:                                              ; preds = %136
  %142 = load ptr, ptr %7, align 8
  %143 = load i32, ptr %4, align 4
  %144 = sext i32 %143 to i64
  %145 = getelementptr inbounds i8, ptr %142, i64 %144
  %146 = getelementptr inbounds i8, ptr %145, i64 1
  store ptr %146, ptr %8, align 8
  %147 = load i8, ptr %9, align 1
  store i8 %147, ptr %10, align 1
  br label %148

148:                                              ; preds = %141, %93
  %149 = load i32, ptr %4, align 4
  %150 = add nsw i32 %149, 1
  store i32 %150, ptr %4, align 4
  br label %66, !llvm.loop !46

151:                                              ; preds = %140
  call void @slurm_xfree(ptr noundef %7)
  %152 = load ptr, ptr %13, align 8
  %153 = load ptr, ptr %3, align 8
  %154 = getelementptr inbounds nuw %struct.job_record, ptr %153, i32 0, i32 77
  %155 = load ptr, ptr %154, align 8
  call void @bit_and(ptr noundef %152, ptr noundef %155)
  %156 = load ptr, ptr %13, align 8
  %157 = call i64 @bit_ffs(ptr noundef %156)
  %158 = trunc i64 %157 to i32
  store i32 %158, ptr %4, align 4
  %159 = icmp sge i32 %158, 0
  br i1 %159, label %160, label %166

160:                                              ; preds = %151
  %161 = load ptr, ptr @node_record_table_ptr, align 8
  %162 = load i32, ptr %4, align 4
  %163 = sext i32 %162 to i64
  %164 = getelementptr inbounds ptr, ptr %161, i64 %163
  %165 = load ptr, ptr %164, align 8
  store ptr %165, ptr %6, align 8
  br label %172

166:                                              ; preds = %151
  %167 = load ptr, ptr @node_record_table_ptr, align 8
  %168 = load i32, ptr %5, align 4
  %169 = sext i32 %168 to i64
  %170 = getelementptr inbounds ptr, ptr %167, i64 %169
  %171 = load ptr, ptr %170, align 8
  store ptr %171, ptr %6, align 8
  br label %172

172:                                              ; preds = %166, %160
  %173 = load ptr, ptr %6, align 8
  %174 = getelementptr inbounds nuw %struct.node_record, ptr %173, i32 0, i32 37
  %175 = load ptr, ptr %174, align 8
  %176 = call ptr @xstrdup(ptr noundef %175)
  %177 = load ptr, ptr %3, align 8
  %178 = getelementptr inbounds nuw %struct.job_record, ptr %177, i32 0, i32 14
  store ptr %176, ptr %178, align 8
  br label %179

179:                                              ; preds = %172
  %180 = load ptr, ptr %13, align 8
  %181 = icmp ne ptr %180, null
  br i1 %181, label %182, label %183

182:                                              ; preds = %179
  call void @slurm_bit_free(ptr noundef %13)
  br label %183

183:                                              ; preds = %182, %179
  store ptr null, ptr %13, align 8
  br label %184

184:                                              ; preds = %183
  br label %185

185:                                              ; preds = %184
  store i32 0, ptr %2, align 4
  store i32 1, ptr %14, align 4
  br label %186

186:                                              ; preds = %185, %44, %36, %25, %19
  call void @llvm.lifetime.end.p0(i64 8, ptr %13) #8
  call void @llvm.lifetime.end.p0(i64 8, ptr %12) #8
  call void @llvm.lifetime.end.p0(i64 8, ptr %11) #8
  call void @llvm.lifetime.end.p0(i64 1, ptr %10) #8
  call void @llvm.lifetime.end.p0(i64 1, ptr %9) #8
  call void @llvm.lifetime.end.p0(i64 8, ptr %8) #8
  call void @llvm.lifetime.end.p0(i64 8, ptr %7) #8
  call void @llvm.lifetime.end.p0(i64 8, ptr %6) #8
  call void @llvm.lifetime.end.p0(i64 4, ptr %5) #8
  call void @llvm.lifetime.end.p0(i64 4, ptr %4) #8
  %187 = load i32, ptr %2, align 4
  ret i32 %187
}