; Function Attrs: nounwind uwtable
define dso_local range(i32 -1, 1) i32 @pick_batch_host(ptr noundef %0) local_unnamed_addr #0 {
  %2 = alloca ptr, align 8
  %3 = alloca ptr, align 8
  call void @llvm.lifetime.start.p0(i64 8, ptr nonnull %2) #14
  call void @llvm.lifetime.start.p0(i64 8, ptr nonnull %3) #14
  %4 = getelementptr inbounds nuw i8, ptr %0, i64 96
  %5 = load ptr, ptr %4, align 8
  %.not = icmp eq ptr %5, null
  br i1 %.not, label %6, label %76

6:                                                ; preds = %1
  %7 = getelementptr inbounds nuw i8, ptr %0, i64 584
  %8 = load ptr, ptr %7, align 8
  %.not44 = icmp eq ptr %8, null
  br i1 %.not44, label %9, label %11

9:                                                ; preds = %6
  %10 = tail call i32 (ptr, ...) @error(ptr noundef nonnull @.str.37, ptr noundef nonnull @__func__.pick_batch_host, ptr noundef nonnull %0) #14
  br label %76

11:                                               ; preds = %6
  %12 = tail call i64 @bit_ffs(ptr noundef nonnull %8) #14
  %13 = and i64 %12, 2147483648
  %.not48 = icmp eq i64 %13, 0
  br i1 %.not48, label %16, label %14

14:                                               ; preds = %11
  %15 = tail call i32 (ptr, ...) @error(ptr noundef nonnull @.str.38, ptr noundef nonnull @__func__.pick_batch_host, ptr noundef nonnull %0) #14
  br label %76

16:                                               ; preds = %11
  %17 = getelementptr inbounds nuw i8, ptr %0, i64 80
  %18 = load ptr, ptr %17, align 8
  %.not45 = icmp eq ptr %18, null
  br i1 %.not45, label %19, label %27

19:                                               ; preds = %16
  %20 = load ptr, ptr @node_record_table_ptr, align 8
  %21 = and i64 %12, 2147483647
  %22 = getelementptr inbounds nuw ptr, ptr %20, i64 %21
  %23 = load ptr, ptr %22, align 8
  %24 = getelementptr inbounds nuw i8, ptr %23, i64 272
  %25 = load ptr, ptr %24, align 8
  %26 = tail call ptr @xstrdup(ptr noundef %25) #14
  store ptr %26, ptr %4, align 8
  br label %76

27:                                               ; preds = %16
  %28 = load ptr, ptr %7, align 8
  %29 = tail call ptr @bit_copy(ptr noundef %28) #14
  store ptr %29, ptr %3, align 8
  %30 = load ptr, ptr %17, align 8
  %31 = tail call ptr @xstrdup(ptr noundef %30) #14
  store ptr %31, ptr %2, align 8
  br label %32

32:                                               ; preds = %63, %27
  %33 = phi ptr [ %64, %63 ], [ %31, %27 ]
  %indvars.iv = phi i64 [ %indvars.iv.next, %63 ], [ 0, %27 ]
  %.036 = phi ptr [ %.137, %63 ], [ %31, %27 ]
  %.034 = phi i8 [ %.1, %63 ], [ 38, %27 ]
  %34 = getelementptr inbounds nuw i8, ptr %33, i64 %indvars.iv
  %35 = load i8, ptr %34, align 1
  switch i8 %35, label %63 [
    i8 38, label %37
    i8 124, label %37
    i8 0, label %36
  ]

36:                                               ; preds = %32
  br label %37

37:                                               ; preds = %32, %32, %36
  %38 = phi i1 [ true, %36 ], [ false, %32 ], [ false, %32 ]
  store i8 0, ptr %34, align 1
  %39 = load ptr, ptr @active_feature_list, align 8
  %40 = tail call ptr @list_iterator_create(ptr noundef %39) #14
  br label %41

41:                                               ; preds = %43, %37
  %42 = tail call ptr @list_next(ptr noundef %40) #14
  %.not46 = icmp eq ptr %42, null
  br i1 %.not46, label %55, label %43

43:                                               ; preds = %41
  %44 = getelementptr inbounds nuw i8, ptr %42, i64 8
  %45 = load ptr, ptr %44, align 8
  %46 = tail call i32 @xstrcmp(ptr noundef %45, ptr noundef %.036) #14
  %.not47 = icmp eq i32 %46, 0
  br i1 %.not47, label %47, label %41, !llvm.loop !50

47:                                               ; preds = %43
  %48 = icmp eq i8 %.034, 38
  %49 = load ptr, ptr %3, align 8
  %50 = getelementptr inbounds nuw i8, ptr %42, i64 16
  %51 = load ptr, ptr %50, align 8
  br i1 %48, label %52, label %53

52:                                               ; preds = %47
  tail call void @bit_and(ptr noundef %49, ptr noundef %51) #14
  br label %54

53:                                               ; preds = %47
  tail call void @bit_or(ptr noundef %49, ptr noundef %51) #14
  br label %54

54:                                               ; preds = %52, %53
  tail call void @list_iterator_destroy(ptr noundef %40) #14
  br label %57

55:                                               ; preds = %41
  tail call void @list_iterator_destroy(ptr noundef %40) #14
  %56 = load ptr, ptr %3, align 8
  tail call void @bit_clear_all(ptr noundef %56) #14
  br label %57

57:                                               ; preds = %54, %55
  %58 = phi ptr [ %49, %54 ], [ %56, %55 ]
  br i1 %38, label %65, label %59

59:                                               ; preds = %57
  %60 = load ptr, ptr %2, align 8
  %61 = getelementptr inbounds nuw i8, ptr %60, i64 %indvars.iv
  %62 = getelementptr inbounds nuw i8, ptr %61, i64 1
  br label %63

63:                                               ; preds = %32, %59
  %64 = phi ptr [ %60, %59 ], [ %33, %32 ]
  %.137 = phi ptr [ %62, %59 ], [ %.036, %32 ]
  %.1 = phi i8 [ %35, %59 ], [ %.034, %32 ]
  %indvars.iv.next = add nuw nsw i64 %indvars.iv, 1
  br label %32, !llvm.loop !51

65:                                               ; preds = %57
  call void @slurm_xfree(ptr noundef nonnull %2) #14
  %66 = load ptr, ptr %7, align 8
  call void @bit_and(ptr noundef %58, ptr noundef %66) #14
  %67 = load ptr, ptr %3, align 8
  %68 = call i64 @bit_ffs(ptr noundef %67) #14
  %69 = and i64 %68, 2147483648
  %70 = icmp eq i64 %69, 0
  %71 = load ptr, ptr @node_record_table_ptr, align 8
  %.038.in.v.v = select i1 %70, i64 %68, i64 %12
  %.038.in.v = and i64 %.038.in.v.v, 2147483647
  %.038.in = getelementptr inbounds nuw ptr, ptr %71, i64 %.038.in.v
  %.038 = load ptr, ptr %.038.in, align 8
  %72 = getelementptr inbounds nuw i8, ptr %.038, i64 272
  %73 = load ptr, ptr %72, align 8
  %74 = call ptr @xstrdup(ptr noundef %73) #14
  store ptr %74, ptr %4, align 8
  %.not49 = icmp eq ptr %67, null
  br i1 %.not49, label %76, label %75

75:                                               ; preds = %65
  call void @slurm_bit_free(ptr noundef nonnull %3) #14
  br label %76

76:                                               ; preds = %65, %75, %1, %19, %14, %9
  %.0 = phi i32 [ -1, %14 ], [ 0, %19 ], [ -1, %9 ], [ 0, %1 ], [ 0, %75 ], [ 0, %65 ]
  call void @llvm.lifetime.end.p0(i64 8, ptr nonnull %3) #14
  call void @llvm.lifetime.end.p0(i64 8, ptr nonnull %2) #14
  ret i32 %.0
}